target datalayout = "e-m:e-p270:32:32-p271:32:32-p272:64:64-i64:64-i128:128-f80:128-n8:16:32:64-S128"
target triple = "x86_64-pc-linux-gnu"

%struct.ggml_opt_dataset = type { ptr, ptr, ptr, ptr, i64, i64, i64, i64, %"class.std::vector" }
%"class.std::vector" = type { %"struct.std::_Vector_base" }
%"struct.std::_Vector_base" = type { %"struct.std::_Vector_base<long, std::allocator<long>>::_Vector_impl" }
%"struct.std::_Vector_base<long, std::allocator<long>>::_Vector_impl" = type { %"struct.std::_Vector_base<long, std::allocator<long>>::_Vector_impl_data" }
%"struct.std::_Vector_base<long, std::allocator<long>>::_Vector_impl_data" = type { ptr, ptr, ptr }
%struct.ggml_tensor = type { i32, ptr, [4 x i64], [4 x i64], i32, [16 x i32], i32, [10 x ptr], ptr, i64, ptr, [64 x i8], ptr, [8 x i8] }

@.str = private unnamed_addr constant [119 x i8] c"generated/home/dtcxzyw/WorkSpace/Projects/compilers/llvm-opt-benchmark/bench/llama.cpp/llama.cpp/ggml/src/ggml-opt.cpp\00", align 1
@.str.1 = private unnamed_addr constant [23 x i8] c"GGML_ASSERT(%s) failed\00", align 1
@.str.8 = private unnamed_addr constant [45 x i8] c"data_batch && ggml_is_contiguous(data_batch)\00", align 1
@.str.9 = private unnamed_addr constant [50 x i8] c"!labels_batch || ggml_is_contiguous(labels_batch)\00", align 1
@.str.10 = private unnamed_addr constant [58 x i8] c"(labels_batch == nullptr) == (dataset->labels == nullptr)\00", align 1
@.str.11 = private unnamed_addr constant [39 x i8] c"nb_data_batch % dataset->nbs_data == 0\00", align 1
@.str.12 = private unnamed_addr constant [56 x i8] c"nb_labels_batch == shards_per_batch*dataset->nbs_labels\00", align 1
@.str.13 = private unnamed_addr constant [70 x i8] c"(ibatch + 1)*shards_per_batch <= int64_t(dataset->permutation.size())\00", align 1

; Function Attrs: mustprogress nounwind uwtable
define linkonce_odr noundef nonnull align 8 dereferenceable(8) ptr @_ZNSt6vectorIlSaIlEEixEm(ptr noundef nonnull align 8 dereferenceable(24) %0, i64 noundef %1) #7 comdat align 2 {
  %3 = alloca ptr, align 8
  %4 = alloca i64, align 8
  store ptr %0, ptr %3, align 8, !tbaa !37
  store i64 %1, ptr %4, align 8, !tbaa !3
  %5 = load ptr, ptr %3, align 8
  %6 = getelementptr inbounds nuw %"struct.std::_Vector_base", ptr %5, i32 0, i32 0
  %7 = getelementptr inbounds nuw %"struct.std::_Vector_base<long, std::allocator<long>>::_Vector_impl_data", ptr %6, i32 0, i32 0
  %8 = load ptr, ptr %7, align 8, !tbaa !39
  %9 = load i64, ptr %4, align 8, !tbaa !3
  %10 = getelementptr inbounds nuw i64, ptr %8, i64 %9
  ret ptr %10
}

; Function Attrs: mustprogress nounwind uwtable
define linkonce_odr noundef i64 @_ZNKSt6vectorIlSaIlEE4sizeEv(ptr noundef nonnull align 8 dereferenceable(24) %0) #7 comdat align 2 {
  %2 = alloca ptr, align 8
  store ptr %0, ptr %2, align 8, !tbaa !37
  %3 = load ptr, ptr %2, align 8
  %4 = getelementptr inbounds nuw %"struct.std::_Vector_base", ptr %3, i32 0, i32 0
  %5 = getelementptr inbounds nuw %"struct.std::_Vector_base<long, std::allocator<long>>::_Vector_impl_data", ptr %4, i32 0, i32 1
  %6 = load ptr, ptr %5, align 8, !tbaa !64
  %7 = getelementptr inbounds nuw %"struct.std::_Vector_base", ptr %3, i32 0, i32 0
  %8 = getelementptr inbounds nuw %"struct.std::_Vector_base<long, std::allocator<long>>::_Vector_impl_data", ptr %7, i32 0, i32 0
  %9 = load ptr, ptr %8, align 8, !tbaa !39
  %10 = ptrtoint ptr %6 to i64
  %11 = ptrtoint ptr %9 to i64
  %12 = sub i64 %10, %11
  %13 = sdiv exact i64 %12, 8
  ret i64 %13
}

; Function Attrs: mustprogress uwtable
define void @ggml_opt_dataset_get_batch(ptr noundef %0, ptr noundef %1, ptr noundef %2, i64 noundef %3) #0 {
  %5 = alloca ptr, align 8
  %6 = alloca ptr, align 8
  %7 = alloca ptr, align 8
  %8 = alloca i64, align 8
  %9 = alloca i64, align 8
  %10 = alloca i64, align 8
  %11 = alloca i64, align 8
  %12 = alloca i64, align 8
  %13 = alloca i32, align 4
  %14 = alloca i64, align 8
  %15 = alloca ptr, align 8
  %16 = alloca ptr, align 8
  store ptr %0, ptr %5, align 8, !tbaa !7
  store ptr %1, ptr %6, align 8, !tbaa !55
  store ptr %2, ptr %7, align 8, !tbaa !55
  store i64 %3, ptr %8, align 8, !tbaa !3
  %17 = load ptr, ptr %6, align 8, !tbaa !55
  %18 = icmp ne ptr %17, null
  br i1 %18, label %19, label %22

19:                                               ; preds = %4
  %20 = load ptr, ptr %6, align 8, !tbaa !55
  %21 = call zeroext i1 @ggml_is_contiguous(ptr noundef %20)
  br i1 %21, label %23, label %22

22:                                               ; preds = %19, %4
  call void (ptr, i32, ptr, ...) @ggml_abort(ptr noundef @.str, i32 noundef 144, ptr noundef @.str.1, ptr noundef @.str.8) #16
  unreachable

23:                                               ; preds = %19
  %24 = load ptr, ptr %7, align 8, !tbaa !55
  %25 = icmp ne ptr %24, null
  br i1 %25, label %26, label %30

26:                                               ; preds = %23
  %27 = load ptr, ptr %7, align 8, !tbaa !55
  %28 = call zeroext i1 @ggml_is_contiguous(ptr noundef %27)
  br i1 %28, label %30, label %29

29:                                               ; preds = %26
  call void (ptr, i32, ptr, ...) @ggml_abort(ptr noundef @.str, i32 noundef 145, ptr noundef @.str.1, ptr noundef @.str.9) #16
  unreachable

30:                                               ; preds = %26, %23
  %31 = load ptr, ptr %7, align 8, !tbaa !55
  %32 = icmp eq ptr %31, null
  %33 = zext i1 %32 to i32
  %34 = load ptr, ptr %5, align 8, !tbaa !7
  %35 = getelementptr inbounds nuw %struct.ggml_opt_dataset, ptr %34, i32 0, i32 3
  %36 = load ptr, ptr %35, align 8, !tbaa !32
  %37 = icmp eq ptr %36, null
  %38 = zext i1 %37 to i32
  %39 = icmp eq i32 %33, %38
  br i1 %39, label %41, label %40

40:                                               ; preds = %30
  call void (ptr, i32, ptr, ...) @ggml_abort(ptr noundef @.str, i32 noundef 146, ptr noundef @.str.1, ptr noundef @.str.10) #16
  unreachable

41:                                               ; preds = %30
  call void @llvm.lifetime.start.p0(i64 8, ptr %9) #17
  %42 = load ptr, ptr %6, align 8, !tbaa !55
  %43 = call i64 @ggml_nbytes(ptr noundef %42)
  store i64 %43, ptr %9, align 8, !tbaa !3
  %44 = load i64, ptr %9, align 8, !tbaa !3
  %45 = load ptr, ptr %5, align 8, !tbaa !7
  %46 = getelementptr inbounds nuw %struct.ggml_opt_dataset, ptr %45, i32 0, i32 6
  %47 = load i64, ptr %46, align 8, !tbaa !31
  %48 = urem i64 %44, %47
  %49 = icmp eq i64 %48, 0
  br i1 %49, label %51, label %50

50:                                               ; preds = %41
  call void (ptr, i32, ptr, ...) @ggml_abort(ptr noundef @.str, i32 noundef 149, ptr noundef @.str.1, ptr noundef @.str.11) #16
  unreachable

51:                                               ; preds = %41
  call void @llvm.lifetime.start.p0(i64 8, ptr %10) #17
  %52 = load i64, ptr %9, align 8, !tbaa !3
  %53 = load ptr, ptr %5, align 8, !tbaa !7
  %54 = getelementptr inbounds nuw %struct.ggml_opt_dataset, ptr %53, i32 0, i32 6
  %55 = load i64, ptr %54, align 8, !tbaa !31
  %56 = udiv i64 %52, %55
  store i64 %56, ptr %10, align 8, !tbaa !3
  %57 = load ptr, ptr %7, align 8, !tbaa !55
  %58 = icmp ne ptr %57, null
  br i1 %58, label %59, label %71

59:                                               ; preds = %51
  call void @llvm.lifetime.start.p0(i64 8, ptr %11) #17
  %60 = load ptr, ptr %7, align 8, !tbaa !55
  %61 = call i64 @ggml_nbytes(ptr noundef %60)
  store i64 %61, ptr %11, align 8, !tbaa !3
  %62 = load i64, ptr %11, align 8, !tbaa !3
  %63 = load i64, ptr %10, align 8, !tbaa !3
  %64 = load ptr, ptr %5, align 8, !tbaa !7
  %65 = getelementptr inbounds nuw %struct.ggml_opt_dataset, ptr %64, i32 0, i32 7
  %66 = load i64, ptr %65, align 8, !tbaa !33
  %67 = mul i64 %63, %66
  %68 = icmp eq i64 %62, %67
  br i1 %68, label %70, label %69

69:                                               ; preds = %59
  call void (ptr, i32, ptr, ...) @ggml_abort(ptr noundef @.str, i32 noundef 154, ptr noundef @.str.1, ptr noundef @.str.12) #16
  unreachable

70:                                               ; preds = %59
  call void @llvm.lifetime.end.p0(i64 8, ptr %11) #17
  br label %71

71:                                               ; preds = %70, %51
  %72 = load i64, ptr %8, align 8, !tbaa !3
  %73 = add nsw i64 %72, 1
  %74 = load i64, ptr %10, align 8, !tbaa !3
  %75 = mul nsw i64 %73, %74
  %76 = load ptr, ptr %5, align 8, !tbaa !7
  %77 = getelementptr inbounds nuw %struct.ggml_opt_dataset, ptr %76, i32 0, i32 8
  %78 = call noundef i64 @_ZNKSt6vectorIlSaIlEE4sizeEv(ptr noundef nonnull align 8 dereferenceable(24) %77) #17
  %79 = icmp sle i64 %75, %78
  br i1 %79, label %81, label %80

80:                                               ; preds = %71
  call void (ptr, i32, ptr, ...) @ggml_abort(ptr noundef @.str, i32 noundef 157, ptr noundef @.str.1, ptr noundef @.str.13) #16
  unreachable

81:                                               ; preds = %71
  call void @llvm.lifetime.start.p0(i64 8, ptr %12) #17
  store i64 0, ptr %12, align 8, !tbaa !3
  br label %82

82:                                               ; preds = %146, %81
  %83 = load i64, ptr %12, align 8, !tbaa !3
  %84 = load i64, ptr %10, align 8, !tbaa !3
  %85 = icmp slt i64 %83, %84
  br i1 %85, label %87, label %86

86:                                               ; preds = %82
  store i32 2, ptr %13, align 4
  call void @llvm.lifetime.end.p0(i64 8, ptr %12) #17
  br label %149

87:                                               ; preds = %82
  call void @llvm.lifetime.start.p0(i64 8, ptr %14) #17
  %88 = load ptr, ptr %5, align 8, !tbaa !7
  %89 = getelementptr inbounds nuw %struct.ggml_opt_dataset, ptr %88, i32 0, i32 8
  %90 = load i64, ptr %8, align 8, !tbaa !3
  %91 = load i64, ptr %10, align 8, !tbaa !3
  %92 = mul nsw i64 %90, %91
  %93 = load i64, ptr %12, align 8, !tbaa !3
  %94 = add nsw i64 %92, %93
  %95 = call noundef nonnull align 8 dereferenceable(8) ptr @_ZNSt6vectorIlSaIlEEixEm(ptr noundef nonnull align 8 dereferenceable(24) %89, i64 noundef %94) #17
  %96 = load i64, ptr %95, align 8, !tbaa !3
  store i64 %96, ptr %14, align 8, !tbaa !3
  call void @llvm.lifetime.start.p0(i64 8, ptr %15) #17
  %97 = load ptr, ptr %5, align 8, !tbaa !7
  %98 = getelementptr inbounds nuw %struct.ggml_opt_dataset, ptr %97, i32 0, i32 2
  %99 = load ptr, ptr %98, align 8, !tbaa !30
  %100 = getelementptr inbounds nuw %struct.ggml_tensor, ptr %99, i32 0, i32 10
  %101 = load ptr, ptr %100, align 8, !tbaa !56
  %102 = load i64, ptr %14, align 8, !tbaa !3
  %103 = load ptr, ptr %5, align 8, !tbaa !7
  %104 = getelementptr inbounds nuw %struct.ggml_opt_dataset, ptr %103, i32 0, i32 6
  %105 = load i64, ptr %104, align 8, !tbaa !31
  %106 = mul i64 %102, %105
  %107 = getelementptr inbounds nuw i8, ptr %101, i64 %106
  store ptr %107, ptr %15, align 8, !tbaa !61
  %108 = load ptr, ptr %6, align 8, !tbaa !55
  %109 = load ptr, ptr %15, align 8, !tbaa !61
  %110 = load i64, ptr %12, align 8, !tbaa !3
  %111 = load ptr, ptr %5, align 8, !tbaa !7
  %112 = getelementptr inbounds nuw %struct.ggml_opt_dataset, ptr %111, i32 0, i32 6
  %113 = load i64, ptr %112, align 8, !tbaa !31
  %114 = mul i64 %110, %113
  %115 = load ptr, ptr %5, align 8, !tbaa !7
  %116 = getelementptr inbounds nuw %struct.ggml_opt_dataset, ptr %115, i32 0, i32 6
  %117 = load i64, ptr %116, align 8, !tbaa !31
  call void @ggml_backend_tensor_set(ptr noundef %108, ptr noundef %109, i64 noundef %114, i64 noundef %117)
  %118 = load ptr, ptr %7, align 8, !tbaa !55
  %119 = icmp ne ptr %118, null
  br i1 %119, label %121, label %120

120:                                              ; preds = %87
  store i32 4, ptr %13, align 4
  br label %143

121:                                              ; preds = %87
  call void @llvm.lifetime.start.p0(i64 8, ptr %16) #17
  %122 = load ptr, ptr %5, align 8, !tbaa !7
  %123 = getelementptr inbounds nuw %struct.ggml_opt_dataset, ptr %122, i32 0, i32 3
  %124 = load ptr, ptr %123, align 8, !tbaa !32
  %125 = getelementptr inbounds nuw %struct.ggml_tensor, ptr %124, i32 0, i32 10
  %126 = load ptr, ptr %125, align 8, !tbaa !56
  %127 = load i64, ptr %14, align 8, !tbaa !3
  %128 = load ptr, ptr %5, align 8, !tbaa !7
  %129 = getelementptr inbounds nuw %struct.ggml_opt_dataset, ptr %128, i32 0, i32 7
  %130 = load i64, ptr %129, align 8, !tbaa !33
  %131 = mul i64 %127, %130
  %132 = getelementptr inbounds nuw i8, ptr %126, i64 %131
  store ptr %132, ptr %16, align 8, !tbaa !61
  %133 = load ptr, ptr %7, align 8, !tbaa !55
  %134 = load ptr, ptr %16, align 8, !tbaa !61
  %135 = load i64, ptr %12, align 8, !tbaa !3
  %136 = load ptr, ptr %5, align 8, !tbaa !7
  %137 = getelementptr inbounds nuw %struct.ggml_opt_dataset, ptr %136, i32 0, i32 7
  %138 = load i64, ptr %137, align 8, !tbaa !33
  %139 = mul i64 %135, %138
  %140 = load ptr, ptr %5, align 8, !tbaa !7
  %141 = getelementptr inbounds nuw %struct.ggml_opt_dataset, ptr %140, i32 0, i32 7
  %142 = load i64, ptr %141, align 8, !tbaa !33
  call void @ggml_backend_tensor_set(ptr noundef %133, ptr noundef %134, i64 noundef %139, i64 noundef %142)
  call void @llvm.lifetime.end.p0(i64 8, ptr %16) #17
  store i32 0, ptr %13, align 4
  br label %143

143:                                              ; preds = %121, %120
  call void @llvm.lifetime.end.p0(i64 8, ptr %15) #17
  call void @llvm.lifetime.end.p0(i64 8, ptr %14) #17
  %144 = load i32, ptr %13, align 4
  switch i32 %144, label %150 [
    i32 0, label %145
    i32 4, label %146
  ]

145:                                              ; preds = %143
  br label %146

146:                                              ; preds = %145, %143
  %147 = load i64, ptr %12, align 8, !tbaa !3
  %148 = add nsw i64 %147, 1
  store i64 %148, ptr %12, align 8, !tbaa !3
  br label %82, !llvm.loop !63

149:                                              ; preds = %86
  call void @llvm.lifetime.end.p0(i64 8, ptr %10) #17
  call void @llvm.lifetime.end.p0(i64 8, ptr %9) #17
  ret void

150:                                              ; preds = %143
  unreachable
}