; Function Attrs: mustprogress uwtable
define void @ggml_opt_dataset_get_batch(ptr noundef readonly captures(none) %0, ptr noundef %1, ptr noundef %2, i64 noundef %3) local_unnamed_addr #0 {
  %.not = icmp eq ptr %1, null
  br i1 %.not, label %7, label %5

5:                                                ; preds = %4
  %6 = tail call zeroext i1 @ggml_is_contiguous(ptr noundef nonnull %1)
  br i1 %6, label %8, label %7

7:                                                ; preds = %5, %4
  tail call void (ptr, i32, ptr, ...) @ggml_abort(ptr noundef nonnull @.str, i32 noundef 144, ptr noundef nonnull @.str.1, ptr noundef nonnull @.str.8) #27
  unreachable

8:                                                ; preds = %5
  %.not45 = icmp eq ptr %2, null
  br i1 %.not45, label %12, label %9

9:                                                ; preds = %8
  %10 = tail call zeroext i1 @ggml_is_contiguous(ptr noundef nonnull %2)
  br i1 %10, label %12, label %11

11:                                               ; preds = %9
  tail call void (ptr, i32, ptr, ...) @ggml_abort(ptr noundef nonnull @.str, i32 noundef 145, ptr noundef nonnull @.str.1, ptr noundef nonnull @.str.9) #27
  unreachable

12:                                               ; preds = %9, %8
  %13 = getelementptr inbounds nuw i8, ptr %0, i64 24
  %14 = load ptr, ptr %13, align 8, !tbaa !25
  %15 = icmp ne ptr %14, null
  %16 = xor i1 %.not45, %15
  br i1 %16, label %18, label %17

17:                                               ; preds = %12
  tail call void (ptr, i32, ptr, ...) @ggml_abort(ptr noundef nonnull @.str, i32 noundef 146, ptr noundef nonnull @.str.1, ptr noundef nonnull @.str.10) #27
  unreachable

18:                                               ; preds = %12
  %19 = tail call i64 @ggml_nbytes(ptr noundef nonnull %1)
  %20 = getelementptr inbounds nuw i8, ptr %0, i64 48
  %21 = load i64, ptr %20, align 8, !tbaa !24
  %22 = urem i64 %19, %21
  %23 = udiv i64 %19, %21
  %24 = icmp eq i64 %22, 0
  br i1 %24, label %26, label %25

25:                                               ; preds = %18
  tail call void (ptr, i32, ptr, ...) @ggml_abort(ptr noundef nonnull @.str, i32 noundef 149, ptr noundef nonnull @.str.1, ptr noundef nonnull @.str.11) #27
  unreachable

26:                                               ; preds = %18
  br i1 %.not45, label %34, label %27

27:                                               ; preds = %26
  %28 = tail call i64 @ggml_nbytes(ptr noundef nonnull %2)
  %29 = getelementptr inbounds nuw i8, ptr %0, i64 56
  %30 = load i64, ptr %29, align 8, !tbaa !26
  %31 = mul i64 %30, %23
  %32 = icmp eq i64 %28, %31
  br i1 %32, label %34, label %33

33:                                               ; preds = %27
  tail call void (ptr, i32, ptr, ...) @ggml_abort(ptr noundef nonnull @.str, i32 noundef 154, ptr noundef nonnull @.str.1, ptr noundef nonnull @.str.12) #27
  unreachable

34:                                               ; preds = %27, %26
  %35 = add nsw i64 %3, 1
  %36 = mul nsw i64 %23, %35
  %37 = getelementptr inbounds nuw i8, ptr %0, i64 64
  %38 = getelementptr inbounds nuw i8, ptr %0, i64 72
  %39 = load ptr, ptr %38, align 8, !tbaa !38
  %40 = load ptr, ptr %37, align 8, !tbaa !28
  %41 = ptrtoint ptr %39 to i64
  %42 = ptrtoint ptr %40 to i64
  %43 = sub i64 %41, %42
  %44 = ashr exact i64 %43, 3
  %.not46 = icmp sgt i64 %36, %44
  br i1 %.not46, label %62, label %.preheader

.preheader:                                       ; preds = %34
  %45 = icmp sgt i64 %23, 0
  br i1 %45, label %.lr.ph, label %._crit_edge

.lr.ph:                                           ; preds = %.preheader
  %46 = mul nsw i64 %23, %3
  %47 = getelementptr inbounds nuw i8, ptr %0, i64 16
  %48 = getelementptr inbounds nuw i8, ptr %0, i64 56
  br i1 %.not45, label %.lr.ph.split.us, label %.lr.ph.split

.lr.ph.split.us:                                  ; preds = %.lr.ph, %.lr.ph.split.us
  %.047.us = phi i64 [ %60, %.lr.ph.split.us ], [ 0, %.lr.ph ]
  %49 = load ptr, ptr %37, align 8, !tbaa !28
  %50 = getelementptr i64, ptr %49, i64 %46
  %51 = getelementptr i64, ptr %50, i64 %.047.us
  %52 = load i64, ptr %51, align 8, !tbaa !18
  %53 = load ptr, ptr %47, align 8, !tbaa !23
  %54 = getelementptr inbounds nuw i8, ptr %53, i64 248
  %55 = load ptr, ptr %54, align 8, !tbaa !39
  %56 = load i64, ptr %20, align 8, !tbaa !24
  %57 = mul i64 %56, %52
  %58 = getelementptr inbounds nuw i8, ptr %55, i64 %57
  %59 = mul i64 %56, %.047.us
  tail call void @ggml_backend_tensor_set(ptr noundef nonnull %1, ptr noundef %58, i64 noundef %59, i64 noundef %56)
  %60 = add nuw nsw i64 %.047.us, 1
  %61 = icmp slt i64 %60, %23
  br i1 %61, label %.lr.ph.split.us, label %._crit_edge, !llvm.loop !44

62:                                               ; preds = %34
  tail call void (ptr, i32, ptr, ...) @ggml_abort(ptr noundef nonnull @.str, i32 noundef 157, ptr noundef nonnull @.str.1, ptr noundef nonnull @.str.13) #27
  unreachable

._crit_edge:                                      ; preds = %.lr.ph.split, %.lr.ph.split.us, %.preheader
  ret void

.lr.ph.split:                                     ; preds = %.lr.ph, %.lr.ph.split
  %.047 = phi i64 [ %81, %.lr.ph.split ], [ 0, %.lr.ph ]
  %63 = load ptr, ptr %37, align 8, !tbaa !28
  %64 = getelementptr i64, ptr %63, i64 %46
  %65 = getelementptr i64, ptr %64, i64 %.047
  %66 = load i64, ptr %65, align 8, !tbaa !18
  %67 = load ptr, ptr %47, align 8, !tbaa !23
  %68 = getelementptr inbounds nuw i8, ptr %67, i64 248
  %69 = load ptr, ptr %68, align 8, !tbaa !39
  %70 = load i64, ptr %20, align 8, !tbaa !24
  %71 = mul i64 %70, %66
  %72 = getelementptr inbounds nuw i8, ptr %69, i64 %71
  %73 = mul i64 %70, %.047
  tail call void @ggml_backend_tensor_set(ptr noundef nonnull %1, ptr noundef %72, i64 noundef %73, i64 noundef %70)
  %74 = load ptr, ptr %13, align 8, !tbaa !25
  %75 = getelementptr inbounds nuw i8, ptr %74, i64 248
  %76 = load ptr, ptr %75, align 8, !tbaa !39
  %77 = load i64, ptr %48, align 8, !tbaa !26
  %78 = mul i64 %77, %66
  %79 = getelementptr inbounds nuw i8, ptr %76, i64 %78
  %80 = mul i64 %77, %.047
  tail call void @ggml_backend_tensor_set(ptr noundef nonnull %2, ptr noundef %79, i64 noundef %80, i64 noundef %77)
  %81 = add nuw nsw i64 %.047, 1
  %82 = icmp slt i64 %81, %23
  br i1 %82, label %.lr.ph.split, label %._crit_edge, !llvm.loop !44
}